target datalayout = "e-m:e-p270:32:32-p271:32:32-p272:64:64-i64:64-i128:128-f80:128-n8:16:32:64-S128"
target triple = "x86_64-pc-linux-gnu"

%struct.anon.6 = type { i32, i64, ptr, i64 }

; Function Attrs: nounwind uwtable
define dso_local i32 @lpValidateIntegrityAndDups(ptr noundef %0, i64 noundef %1, i32 noundef %2, i32 noundef %3) #0 {
  %5 = alloca i32, align 4
  %6 = alloca ptr, align 8
  %7 = alloca i64, align 8
  %8 = alloca i32, align 4
  %9 = alloca i32, align 4
  %10 = alloca %struct.anon.6, align 8
  %11 = alloca i32, align 4
  store ptr %0, ptr %6, align 8, !tbaa !9
  store i64 %1, ptr %7, align 8, !tbaa !56
  store i32 %2, ptr %8, align 4, !tbaa !5
  store i32 %3, ptr %9, align 4, !tbaa !5
  %12 = load i32, ptr %8, align 4, !tbaa !5
  %13 = icmp ne i32 %12, 0
  br i1 %13, label %18, label %14

14:                                               ; preds = %4
  %15 = load ptr, ptr %6, align 8, !tbaa !9
  %16 = load i64, ptr %7, align 8, !tbaa !56
  %17 = call i32 @lpValidateIntegrity(ptr noundef %15, i64 noundef %16, i32 noundef 0, ptr noundef null, ptr noundef null)
  store i32 %17, ptr %5, align 4
  br label %44

18:                                               ; preds = %4
  call void @llvm.lifetime.start.p0(i64 32, ptr %10) #15
  %19 = getelementptr inbounds nuw %struct.anon.6, ptr %10, i32 0, i32 0
  %20 = load i32, ptr %9, align 4, !tbaa !5
  store i32 %20, ptr %19, align 8, !tbaa !226
  %21 = getelementptr i8, ptr %10, i64 4
  call void @llvm.memset.p0.i64(ptr align 4 %21, i8 0, i64 4, i1 false)
  %22 = getelementptr inbounds nuw %struct.anon.6, ptr %10, i32 0, i32 1
  store i64 0, ptr %22, align 8, !tbaa !228
  %23 = getelementptr inbounds nuw %struct.anon.6, ptr %10, i32 0, i32 2
  store ptr null, ptr %23, align 8, !tbaa !229
  %24 = getelementptr inbounds nuw %struct.anon.6, ptr %10, i32 0, i32 3
  store i64 -1, ptr %24, align 8, !tbaa !230
  call void @llvm.lifetime.start.p0(i64 4, ptr %11) #15
  %25 = load ptr, ptr %6, align 8, !tbaa !9
  %26 = load i64, ptr %7, align 8, !tbaa !56
  %27 = call i32 @lpValidateIntegrity(ptr noundef %25, i64 noundef %26, i32 noundef 1, ptr noundef @_lpEntryValidation, ptr noundef %10)
  store i32 %27, ptr %11, align 4, !tbaa !5
  %28 = getelementptr inbounds nuw %struct.anon.6, ptr %10, i32 0, i32 1
  %29 = load i64, ptr %28, align 8, !tbaa !228
  %30 = load i32, ptr %9, align 4, !tbaa !5
  %31 = sext i32 %30 to i64
  %32 = srem i64 %29, %31
  %33 = icmp ne i64 %32, 0
  br i1 %33, label %34, label %35

34:                                               ; preds = %18
  store i32 0, ptr %11, align 4, !tbaa !5
  br label %35

35:                                               ; preds = %34, %18
  %36 = getelementptr inbounds nuw %struct.anon.6, ptr %10, i32 0, i32 2
  %37 = load ptr, ptr %36, align 8, !tbaa !229
  %38 = icmp ne ptr %37, null
  br i1 %38, label %39, label %42

39:                                               ; preds = %35
  %40 = getelementptr inbounds nuw %struct.anon.6, ptr %10, i32 0, i32 2
  %41 = load ptr, ptr %40, align 8, !tbaa !229
  call void @dictRelease(ptr noundef %41)
  br label %42

42:                                               ; preds = %39, %35
  %43 = load i32, ptr %11, align 4, !tbaa !5
  store i32 %43, ptr %5, align 4
  call void @llvm.lifetime.end.p0(i64 4, ptr %11) #15
  call void @llvm.lifetime.end.p0(i64 32, ptr %10) #15
  br label %44

44:                                               ; preds = %42, %14
  %45 = load i32, ptr %5, align 4
  ret i32 %45
}