; Function Attrs: nounwind uwtable
define dso_local i32 @lpValidateIntegrityAndDups(ptr noundef %0, i64 noundef %1, i32 noundef %2, i32 noundef %3) local_unnamed_addr #0 {
  %5 = alloca %struct.anon.6, align 8
  %.not = icmp eq i32 %2, 0
  br i1 %.not, label %6, label %8

6:                                                ; preds = %4
  %7 = tail call i32 @lpValidateIntegrity(ptr noundef %0, i64 noundef %1, i32 noundef 0, ptr noundef null, ptr noundef null) #23
  br label %20

8:                                                ; preds = %4
  call void @llvm.lifetime.start.p0(i64 32, ptr nonnull %5) #23
  store i32 %3, ptr %5, align 8, !tbaa !184
  %9 = getelementptr inbounds nuw i8, ptr %5, i64 4
  %10 = getelementptr inbounds nuw i8, ptr %5, i64 8
  %11 = getelementptr inbounds nuw i8, ptr %5, i64 16
  %12 = getelementptr inbounds nuw i8, ptr %5, i64 24
  call void @llvm.memset.p0.i64(ptr noundef nonnull align 4 dereferenceable(20) %9, i8 0, i64 20, i1 false)
  store i64 -1, ptr %12, align 8, !tbaa !186
  %13 = call i32 @lpValidateIntegrity(ptr noundef %0, i64 noundef %1, i32 noundef 1, ptr noundef nonnull @_lpEntryValidation, ptr noundef nonnull %5) #23
  %14 = load i64, ptr %10, align 8, !tbaa !187
  %15 = sext i32 %3 to i64
  %16 = srem i64 %14, %15
  %.not9 = icmp eq i64 %16, 0
  %spec.store.select = select i1 %.not9, i32 %13, i32 0
  %17 = load ptr, ptr %11, align 8, !tbaa !188
  %.not10 = icmp eq ptr %17, null
  br i1 %.not10, label %19, label %18

18:                                               ; preds = %8
  call void @dictRelease(ptr noundef nonnull %17) #23
  br label %19

19:                                               ; preds = %18, %8
  call void @llvm.lifetime.end.p0(i64 32, ptr nonnull %5) #23
  br label %20

20:                                               ; preds = %19, %6
  %.0 = phi i32 [ %spec.store.select, %19 ], [ %7, %6 ]
  ret i32 %.0
}